target datalayout = "e-m:e-p270:32:32-p271:32:32-p272:64:64-i64:64-i128:128-f80:128-n8:16:32:64-S128"
target triple = "x86_64-pc-linux-gnu"

%struct.mbedtls_ecp_keypair = type { %struct.mbedtls_ecp_group, %struct.mbedtls_mpi, %struct.mbedtls_ecp_point }
%struct.mbedtls_ecp_group = type { i32, %struct.mbedtls_mpi, %struct.mbedtls_mpi, %struct.mbedtls_mpi, %struct.mbedtls_ecp_point, %struct.mbedtls_mpi, i64, i64, i32, ptr, ptr, ptr, ptr, ptr, i64 }
%struct.mbedtls_mpi = type { ptr, i16, i16 }
%struct.mbedtls_ecp_point = type { %struct.mbedtls_mpi, %struct.mbedtls_mpi, %struct.mbedtls_mpi }
%struct.psa_key_attributes_s = type { i16, i16, i32, %struct.psa_key_policy_s, i32 }
%struct.psa_key_policy_s = type { i32, i32, i32 }

; Function Attrs: inlinehint nounwind uwtable
define internal i32 @mbedtls_md_type_from_psa_alg(i32 noundef %0) #6 {
  %2 = alloca i32, align 4
  store i32 %0, ptr %2, align 4, !tbaa !15
  %3 = load i32, ptr %2, align 4, !tbaa !15
  %4 = and i32 %3, 255
  ret i32 %4
}

; Function Attrs: nounwind uwtable
define hidden i32 @mbedtls_psa_ecdsa_sign_hash(ptr noundef %0, ptr noundef %1, i64 noundef %2, i32 noundef %3, ptr noundef %4, i64 noundef %5, ptr noundef %6, i64 noundef %7, ptr noundef %8) #0 {
  %10 = alloca i32, align 4
  %11 = alloca ptr, align 8
  %12 = alloca ptr, align 8
  %13 = alloca i64, align 8
  %14 = alloca i32, align 4
  %15 = alloca ptr, align 8
  %16 = alloca i64, align 8
  %17 = alloca ptr, align 8
  %18 = alloca i64, align 8
  %19 = alloca ptr, align 8
  %20 = alloca i32, align 4
  %21 = alloca ptr, align 8
  %22 = alloca i32, align 4
  %23 = alloca i64, align 8
  %24 = alloca %struct.mbedtls_mpi, align 8
  %25 = alloca %struct.mbedtls_mpi, align 8
  %26 = alloca i32, align 4
  %27 = alloca i32, align 4
  %28 = alloca i32, align 4
  store ptr %0, ptr %11, align 8, !tbaa !28
  store ptr %1, ptr %12, align 8, !tbaa !9
  store i64 %2, ptr %13, align 8, !tbaa !7
  store i32 %3, ptr %14, align 4, !tbaa !15
  store ptr %4, ptr %15, align 8, !tbaa !9
  store i64 %5, ptr %16, align 8, !tbaa !7
  store ptr %6, ptr %17, align 8, !tbaa !9
  store i64 %7, ptr %18, align 8, !tbaa !7
  store ptr %8, ptr %19, align 8, !tbaa !27
  call void @llvm.lifetime.start.p0(i64 4, ptr %20) #7
  store i32 -151, ptr %20, align 4, !tbaa !15
  call void @llvm.lifetime.start.p0(i64 8, ptr %21) #7
  store ptr null, ptr %21, align 8, !tbaa !17
  call void @llvm.lifetime.start.p0(i64 4, ptr %22) #7
  store i32 -110, ptr %22, align 4, !tbaa !15
  call void @llvm.lifetime.start.p0(i64 8, ptr %23) #7
  call void @llvm.lifetime.start.p0(i64 16, ptr %24) #7
  call void @llvm.lifetime.start.p0(i64 16, ptr %25) #7
  %29 = load ptr, ptr %11, align 8, !tbaa !28
  %30 = getelementptr inbounds nuw %struct.psa_key_attributes_s, ptr %29, i32 0, i32 0
  %31 = load i16, ptr %30, align 4, !tbaa !30
  %32 = load ptr, ptr %11, align 8, !tbaa !28
  %33 = getelementptr inbounds nuw %struct.psa_key_attributes_s, ptr %32, i32 0, i32 1
  %34 = load i16, ptr %33, align 2, !tbaa !33
  %35 = zext i16 %34 to i64
  %36 = load ptr, ptr %12, align 8, !tbaa !9
  %37 = load i64, ptr %13, align 8, !tbaa !7
  %38 = call i32 @mbedtls_psa_ecp_load_representation(i16 noundef zeroext %31, i64 noundef %35, ptr noundef %36, i64 noundef %37, ptr noundef %21)
  store i32 %38, ptr %20, align 4, !tbaa !15
  %39 = load i32, ptr %20, align 4, !tbaa !15
  %40 = icmp ne i32 %39, 0
  br i1 %40, label %41, label %43

41:                                               ; preds = %9
  %42 = load i32, ptr %20, align 4, !tbaa !15
  store i32 %42, ptr %10, align 4
  store i32 1, ptr %26, align 4
  br label %162

43:                                               ; preds = %9
  %44 = load ptr, ptr %21, align 8, !tbaa !17
  %45 = getelementptr inbounds nuw %struct.mbedtls_ecp_keypair, ptr %44, i32 0, i32 0
  %46 = getelementptr inbounds nuw %struct.mbedtls_ecp_group, ptr %45, i32 0, i32 6
  %47 = load i64, ptr %46, align 8, !tbaa !37
  %48 = add i64 %47, 7
  %49 = udiv i64 %48, 8
  store i64 %49, ptr %23, align 8, !tbaa !7
  call void @mbedtls_mpi_init(ptr noundef %24)
  call void @mbedtls_mpi_init(ptr noundef %25)
  %50 = load i64, ptr %18, align 8, !tbaa !7
  %51 = load i64, ptr %23, align 8, !tbaa !7
  %52 = mul i64 2, %51
  %53 = icmp ult i64 %50, %52
  br i1 %53, label %54, label %55

54:                                               ; preds = %43
  store i32 -20224, ptr %22, align 4, !tbaa !15
  br label %150

55:                                               ; preds = %43
  %56 = load i32, ptr %14, align 4, !tbaa !15
  %57 = and i32 %56, 256
  %58 = icmp ne i32 %57, 0
  br i1 %58, label %59, label %115

59:                                               ; preds = %55
  call void @llvm.lifetime.start.p0(i64 4, ptr %27) #7
  %60 = load i32, ptr %14, align 4, !tbaa !15
  %61 = and i32 %60, -256
  %62 = icmp eq i32 %61, 100664064
  br i1 %62, label %85, label %63

63:                                               ; preds = %59
  %64 = load i32, ptr %14, align 4, !tbaa !15
  %65 = and i32 %64, -256
  %66 = icmp eq i32 %65, 100668160
  br i1 %66, label %85, label %67

67:                                               ; preds = %63
  %68 = load i32, ptr %14, align 4, !tbaa !15
  %69 = and i32 %68, -256
  %70 = icmp eq i32 %69, 100663808
  br i1 %70, label %85, label %71

71:                                               ; preds = %67
  %72 = load i32, ptr %14, align 4, !tbaa !15
  %73 = and i32 %72, -256
  %74 = and i32 %73, -257
  %75 = icmp eq i32 %74, 100664832
  br i1 %75, label %85, label %76

76:                                               ; preds = %71
  %77 = load i32, ptr %14, align 4, !tbaa !15
  %78 = and i32 %77, -256
  %79 = icmp eq i32 %78, 100665600
  br i1 %79, label %85, label %80

80:                                               ; preds = %76
  %81 = load i32, ptr %14, align 4, !tbaa !15
  %82 = and i32 %81, -256
  %83 = and i32 %82, -257
  %84 = icmp eq i32 %83, 100664320
  br i1 %84, label %85, label %93

85:                                               ; preds = %80, %76, %71, %67, %63, %59
  %86 = load i32, ptr %14, align 4, !tbaa !15
  %87 = and i32 %86, 255
  %88 = icmp ne i32 %87, 0
  br i1 %88, label %89, label %93

89:                                               ; preds = %85
  %90 = load i32, ptr %14, align 4, !tbaa !15
  %91 = and i32 %90, 255
  %92 = or i32 %91, 33554432
  br label %94

93:                                               ; preds = %85, %80
  br label %94

94:                                               ; preds = %93, %89
  %95 = phi i32 [ %92, %89 ], [ 0, %93 ]
  store i32 %95, ptr %27, align 4, !tbaa !15
  call void @llvm.lifetime.start.p0(i64 4, ptr %28) #7
  %96 = load i32, ptr %27, align 4, !tbaa !15
  %97 = call i32 @mbedtls_md_type_from_psa_alg(i32 noundef %96)
  store i32 %97, ptr %28, align 4, !tbaa !15
  br label %98

98:                                               ; preds = %94
  %99 = load ptr, ptr %21, align 8, !tbaa !17
  %100 = getelementptr inbounds nuw %struct.mbedtls_ecp_keypair, ptr %99, i32 0, i32 0
  %101 = load ptr, ptr %21, align 8, !tbaa !17
  %102 = getelementptr inbounds nuw %struct.mbedtls_ecp_keypair, ptr %101, i32 0, i32 1
  %103 = load ptr, ptr %15, align 8, !tbaa !9
  %104 = load i64, ptr %16, align 8, !tbaa !7
  %105 = load i32, ptr %28, align 4, !tbaa !15
  %106 = call i32 @mbedtls_ecdsa_sign_det_ext(ptr noundef %100, ptr noundef %24, ptr noundef %25, ptr noundef %102, ptr noundef %103, i64 noundef %104, i32 noundef %105, ptr noundef @mbedtls_psa_get_random, ptr noundef null)
  store i32 %106, ptr %22, align 4, !tbaa !15
  %107 = icmp ne i32 %106, 0
  br i1 %107, label %108, label %109

108:                                              ; preds = %98
  store i32 2, ptr %26, align 4
  br label %112

109:                                              ; preds = %98
  br label %110

110:                                              ; preds = %109
  br label %111

111:                                              ; preds = %110
  store i32 0, ptr %26, align 4
  br label %112

112:                                              ; preds = %108, %111
  call void @llvm.lifetime.end.p0(i64 4, ptr %28) #7
  call void @llvm.lifetime.end.p0(i64 4, ptr %27) #7
  %113 = load i32, ptr %26, align 4
  switch i32 %113, label %162 [
    i32 0, label %114
    i32 2, label %150
  ]

114:                                              ; preds = %112
  br label %129

115:                                              ; preds = %55
  br label %116

116:                                              ; preds = %115
  %117 = load ptr, ptr %21, align 8, !tbaa !17
  %118 = getelementptr inbounds nuw %struct.mbedtls_ecp_keypair, ptr %117, i32 0, i32 0
  %119 = load ptr, ptr %21, align 8, !tbaa !17
  %120 = getelementptr inbounds nuw %struct.mbedtls_ecp_keypair, ptr %119, i32 0, i32 1
  %121 = load ptr, ptr %15, align 8, !tbaa !9
  %122 = load i64, ptr %16, align 8, !tbaa !7
  %123 = call i32 @mbedtls_ecdsa_sign(ptr noundef %118, ptr noundef %24, ptr noundef %25, ptr noundef %120, ptr noundef %121, i64 noundef %122, ptr noundef @mbedtls_psa_get_random, ptr noundef null)
  store i32 %123, ptr %22, align 4, !tbaa !15
  %124 = icmp ne i32 %123, 0
  br i1 %124, label %125, label %126

125:                                              ; preds = %116
  br label %150

126:                                              ; preds = %116
  br label %127

127:                                              ; preds = %126
  br label %128

128:                                              ; preds = %127
  br label %129

129:                                              ; preds = %128, %114
  br label %130

130:                                              ; preds = %129
  %131 = load ptr, ptr %17, align 8, !tbaa !9
  %132 = load i64, ptr %23, align 8, !tbaa !7
  %133 = call i32 @mbedtls_mpi_write_binary(ptr noundef %24, ptr noundef %131, i64 noundef %132)
  store i32 %133, ptr %22, align 4, !tbaa !15
  %134 = icmp ne i32 %133, 0
  br i1 %134, label %135, label %136

135:                                              ; preds = %130
  br label %150

136:                                              ; preds = %130
  br label %137

137:                                              ; preds = %136
  br label %138

138:                                              ; preds = %137
  br label %139

139:                                              ; preds = %138
  %140 = load ptr, ptr %17, align 8, !tbaa !9
  %141 = load i64, ptr %23, align 8, !tbaa !7
  %142 = getelementptr inbounds nuw i8, ptr %140, i64 %141
  %143 = load i64, ptr %23, align 8, !tbaa !7
  %144 = call i32 @mbedtls_mpi_write_binary(ptr noundef %25, ptr noundef %142, i64 noundef %143)
  store i32 %144, ptr %22, align 4, !tbaa !15
  %145 = icmp ne i32 %144, 0
  br i1 %145, label %146, label %147

146:                                              ; preds = %139
  br label %150

147:                                              ; preds = %139
  br label %148

148:                                              ; preds = %147
  br label %149

149:                                              ; preds = %148
  br label %150

150:                                              ; preds = %149, %112, %146, %135, %125, %54
  call void @mbedtls_mpi_free(ptr noundef %24)
  call void @mbedtls_mpi_free(ptr noundef %25)
  %151 = load i32, ptr %22, align 4, !tbaa !15
  %152 = icmp eq i32 %151, 0
  br i1 %152, label %153, label %157

153:                                              ; preds = %150
  %154 = load i64, ptr %23, align 8, !tbaa !7
  %155 = mul i64 2, %154
  %156 = load ptr, ptr %19, align 8, !tbaa !27
  store i64 %155, ptr %156, align 8, !tbaa !7
  br label %157

157:                                              ; preds = %153, %150
  %158 = load ptr, ptr %21, align 8, !tbaa !17
  call void @mbedtls_ecp_keypair_free(ptr noundef %158)
  %159 = load ptr, ptr %21, align 8, !tbaa !17
  call void @free(ptr noundef %159) #7
  %160 = load i32, ptr %22, align 4, !tbaa !15
  %161 = call i32 @mbedtls_to_psa_error(i32 noundef %160)
  store i32 %161, ptr %10, align 4
  store i32 1, ptr %26, align 4
  br label %162

162:                                              ; preds = %157, %112, %41
  call void @llvm.lifetime.end.p0(i64 16, ptr %25) #7
  call void @llvm.lifetime.end.p0(i64 16, ptr %24) #7
  call void @llvm.lifetime.end.p0(i64 8, ptr %23) #7
  call void @llvm.lifetime.end.p0(i64 4, ptr %22) #7
  call void @llvm.lifetime.end.p0(i64 8, ptr %21) #7
  call void @llvm.lifetime.end.p0(i64 4, ptr %20) #7
  %163 = load i32, ptr %10, align 4
  ret i32 %163
}