; Function Attrs: nounwind uwtable
define hidden i32 @mbedtls_psa_ecdsa_sign_hash(ptr noundef readonly captures(none) %0, ptr noundef %1, i64 noundef %2, i32 noundef %3, ptr noundef %4, i64 noundef %5, ptr noundef %6, i64 noundef %7, ptr noundef writeonly captures(none) %8) local_unnamed_addr #0 {
  %10 = alloca ptr, align 8
  %11 = alloca %struct.mbedtls_mpi, align 8
  %12 = alloca %struct.mbedtls_mpi, align 8
  call void @llvm.lifetime.start.p0(i64 8, ptr nonnull %10) #7
  store ptr null, ptr %10, align 8, !tbaa !16
  call void @llvm.lifetime.start.p0(i64 16, ptr nonnull %11) #7
  call void @llvm.lifetime.start.p0(i64 16, ptr nonnull %12) #7
  %13 = load i16, ptr %0, align 4, !tbaa !18
  %14 = getelementptr inbounds nuw i8, ptr %0, i64 2
  %15 = load i16, ptr %14, align 2, !tbaa !21
  %16 = zext i16 %15 to i64
  %17 = call i32 @mbedtls_psa_ecp_load_representation(i16 noundef zeroext %13, i64 noundef %16, ptr noundef %1, i64 noundef %2, ptr noundef nonnull %10)
  %.not = icmp eq i32 %17, 0
  br i1 %.not, label %18, label %50

18:                                               ; preds = %9
  %19 = load ptr, ptr %10, align 8, !tbaa !16
  %20 = getelementptr inbounds nuw i8, ptr %19, i64 120
  %21 = load i64, ptr %20, align 8, !tbaa !24
  %22 = add i64 %21, 7
  %23 = lshr i64 %22, 3
  call void @mbedtls_mpi_init(ptr noundef nonnull %11) #7
  call void @mbedtls_mpi_init(ptr noundef nonnull %12) #7
  %24 = shl nuw nsw i64 %23, 1
  %25 = icmp ult i64 %7, %24
  br i1 %25, label %45, label %26

26:                                               ; preds = %18
  %27 = and i32 %3, 256
  %.not41 = icmp eq i32 %27, 0
  br i1 %.not41, label %37, label %28

28:                                               ; preds = %26
  %29 = and i32 %3, -256
  switch i32 %29, label %switch.early.test [
    i32 100664064, label %31
    i32 100668160, label %31
    i32 100665600, label %31
  ]

switch.early.test:                                ; preds = %28
  %30 = and i32 %3, -512
  switch i32 %30, label %33 [
    i32 100664832, label %31
    i32 100664320, label %31
  ]

31:                                               ; preds = %28, %28, %28, %switch.early.test, %switch.early.test
  %32 = and i32 %3, 255
  br label %33

33:                                               ; preds = %31, %switch.early.test
  %34 = phi i32 [ 0, %switch.early.test ], [ %32, %31 ]
  %35 = getelementptr inbounds nuw i8, ptr %19, i64 192
  %36 = call i32 @mbedtls_ecdsa_sign_det_ext(ptr noundef nonnull %19, ptr noundef nonnull %11, ptr noundef nonnull %12, ptr noundef nonnull %35, ptr noundef %4, i64 noundef %5, i32 noundef %34, ptr noundef nonnull @mbedtls_psa_get_random, ptr noundef null) #7
  %.not44 = icmp eq i32 %36, 0
  br i1 %.not44, label %40, label %45

37:                                               ; preds = %26
  %38 = getelementptr inbounds nuw i8, ptr %19, i64 192
  %39 = call i32 @mbedtls_ecdsa_sign(ptr noundef nonnull %19, ptr noundef nonnull %11, ptr noundef nonnull %12, ptr noundef nonnull %38, ptr noundef %4, i64 noundef %5, ptr noundef nonnull @mbedtls_psa_get_random, ptr noundef null) #7
  %.not42 = icmp eq i32 %39, 0
  br i1 %.not42, label %40, label %45

40:                                               ; preds = %33, %37
  %41 = call i32 @mbedtls_mpi_write_binary(ptr noundef nonnull %11, ptr noundef %6, i64 noundef %23) #7
  %.not45 = icmp eq i32 %41, 0
  br i1 %.not45, label %42, label %45

42:                                               ; preds = %40
  %43 = getelementptr inbounds nuw i8, ptr %6, i64 %23
  %44 = call i32 @mbedtls_mpi_write_binary(ptr noundef nonnull %12, ptr noundef %43, i64 noundef %23) #7
  br label %45

45:                                               ; preds = %33, %18, %42, %40, %37
  %.034 = phi i32 [ %36, %33 ], [ %41, %40 ], [ %44, %42 ], [ %39, %37 ], [ -20224, %18 ]
  call void @mbedtls_mpi_free(ptr noundef nonnull %11) #7
  call void @mbedtls_mpi_free(ptr noundef nonnull %12) #7
  %46 = icmp eq i32 %.034, 0
  br i1 %46, label %47, label %48

47:                                               ; preds = %45
  store i64 %24, ptr %8, align 8, !tbaa !23
  br label %48

48:                                               ; preds = %47, %45
  call void @mbedtls_ecp_keypair_free(ptr noundef nonnull %19) #7
  call void @free(ptr noundef nonnull %19) #7
  %49 = call i32 @mbedtls_to_psa_error(i32 noundef %.034) #7
  br label %50

50:                                               ; preds = %9, %48
  %.0 = phi i32 [ %49, %48 ], [ %17, %9 ]
  call void @llvm.lifetime.end.p0(i64 16, ptr nonnull %12) #7
  call void @llvm.lifetime.end.p0(i64 16, ptr nonnull %11) #7
  call void @llvm.lifetime.end.p0(i64 8, ptr nonnull %10) #7
  ret i32 %.0
}